; ModuleID = '24/1295.c'
source_filename = "24/1295.c"
target datalayout = "e-m:e-p270:32:32-p271:32:32-p272:64:64-i64:64-f80:128-n8:16:32:64-S128"
target triple = "x86_64-pc-linux-gnu"

@.str = private unnamed_addr constant [3 x i8] c"%s\00", align 1
@.str.1 = private unnamed_addr constant [4 x i8] c"%s\0A\00", align 1

; Function Attrs: noinline nounwind uwtable
define dso_local void @main() #0 {
  %1 = alloca i32, align 4
  %2 = alloca i32, align 4
  %3 = alloca i32, align 4
  %4 = alloca i32, align 4
  %5 = alloca i32, align 4
  %6 = alloca [30 x i8]*, align 8
  %7 = alloca i32*, align 8
  %8 = call noalias i8* @malloc(i64 400) #4
  %9 = bitcast i8* %8 to i32*
  store i32* %9, i32** %7, align 8
  %10 = call noalias i8* @malloc(i64 3000) #4
  %11 = bitcast i8* %10 to [30 x i8]*
  store [30 x i8]* %11, [30 x i8]** %6, align 8
  store i32 0, i32* %1, align 4
  br label %12

12:                                               ; preds = %31, %0
  %13 = load [30 x i8]*, [30 x i8]** %6, align 8
  %14 = load i32, i32* %1, align 4
  %15 = sext i32 %14 to i64
  %16 = getelementptr inbounds [30 x i8], [30 x i8]* %13, i64 %15
  %17 = call i32 (i8*, ...) @__isoc99_scanf(i8* getelementptr inbounds ([3 x i8], [3 x i8]* @.str, i64 0, i64 0), [30 x i8]* %16)
  %18 = icmp ne i32 %17, -1
  br i1 %18, label %19, label %34

19:                                               ; preds = %12
  %20 = load [30 x i8]*, [30 x i8]** %6, align 8
  %21 = load i32, i32* %1, align 4
  %22 = sext i32 %21 to i64
  %23 = getelementptr inbounds [30 x i8], [30 x i8]* %20, i64 %22
  %24 = getelementptr inbounds [30 x i8], [30 x i8]* %23, i64 0, i64 0
  %25 = call i64 @strlen(i8* %24) #5
  %26 = trunc i64 %25 to i32
  %27 = load i32*, i32** %7, align 8
  %28 = load i32, i32* %1, align 4
  %29 = sext i32 %28 to i64
  %30 = getelementptr inbounds i32, i32* %27, i64 %29
  store i32 %26, i32* %30, align 4
  br label %31

31:                                               ; preds = %19
  %32 = load i32, i32* %1, align 4
  %33 = add nsw i32 %32, 1
  store i32 %33, i32* %1, align 4
  br label %12

34:                                               ; preds = %12
  store i32 0, i32* %4, align 4
  store i32 0, i32* %2, align 4
  br label %35

35:                                               ; preds = %54, %34
  %36 = load i32, i32* %2, align 4
  %37 = load i32, i32* %1, align 4
  %38 = icmp slt i32 %36, %37
  br i1 %38, label %39, label %57

39:                                               ; preds = %35
  %40 = load i32, i32* %4, align 4
  %41 = load i32*, i32** %7, align 8
  %42 = load i32, i32* %2, align 4
  %43 = sext i32 %42 to i64
  %44 = getelementptr inbounds i32, i32* %41, i64 %43
  %45 = load i32, i32* %44, align 4
  %46 = icmp slt i32 %40, %45
  br i1 %46, label %47, label %53

47:                                               ; preds = %39
  %48 = load i32*, i32** %7, align 8
  %49 = load i32, i32* %2, align 4
  %50 = sext i32 %49 to i64
  %51 = getelementptr inbounds i32, i32* %48, i64 %50
  %52 = load i32, i32* %51, align 4
  store i32 %52, i32* %4, align 4
  br label %53

53:                                               ; preds = %47, %39
  br label %54

54:                                               ; preds = %53
  %55 = load i32, i32* %2, align 4
  %56 = add nsw i32 %55, 1
  store i32 %56, i32* %2, align 4
  br label %35

57:                                               ; preds = %35
  store i32 0, i32* %2, align 4
  br label %58

58:                                               ; preds = %78, %57
  %59 = load i32, i32* %2, align 4
  %60 = load i32, i32* %1, align 4
  %61 = icmp slt i32 %59, %60
  br i1 %61, label %62, label %81

62:                                               ; preds = %58
  %63 = load i32, i32* %4, align 4
  %64 = load i32*, i32** %7, align 8
  %65 = load i32, i32* %2, align 4
  %66 = sext i32 %65 to i64
  %67 = getelementptr inbounds i32, i32* %64, i64 %66
  %68 = load i32, i32* %67, align 4
  %69 = icmp eq i32 %63, %68
  br i1 %69, label %70, label %77

70:                                               ; preds = %62
  %71 = load [30 x i8]*, [30 x i8]** %6, align 8
  %72 = load i32, i32* %2, align 4
  %73 = sext i32 %72 to i64
  %74 = getelementptr inbounds [30 x i8], [30 x i8]* %71, i64 %73
  %75 = getelementptr inbounds [30 x i8], [30 x i8]* %74, i64 0, i64 0
  %76 = call i32 (i8*, ...) @printf(i8* getelementptr inbounds ([4 x i8], [4 x i8]* @.str.1, i64 0, i64 0), i8* %75)
  br label %81

77:                                               ; preds = %62
  br label %78

78:                                               ; preds = %77
  %79 = load i32, i32* %2, align 4
  %80 = add nsw i32 %79, 1
  store i32 %80, i32* %2, align 4
  br label %58

81:                                               ; preds = %70, %58
  %82 = load i32, i32* %4, align 4
  %83 = add nsw i32 %82, 1
  store i32 %83, i32* %5, align 4
  store i32 0, i32* %2, align 4
  br label %84

84:                                               ; preds = %103, %81
  %85 = load i32, i32* %2, align 4
  %86 = load i32, i32* %1, align 4
  %87 = icmp slt i32 %85, %86
  br i1 %87, label %88, label %106

88:                                               ; preds = %84
  %89 = load i32, i32* %5, align 4
  %90 = load i32*, i32** %7, align 8
  %91 = load i32, i32* %2, align 4
  %92 = sext i32 %91 to i64
  %93 = getelementptr inbounds i32, i32* %90, i64 %92
  %94 = load i32, i32* %93, align 4
  %95 = icmp sgt i32 %89, %94
  br i1 %95, label %96, label %102

96:                                               ; preds = %88
  %97 = load i32*, i32** %7, align 8
  %98 = load i32, i32* %2, align 4
  %99 = sext i32 %98 to i64
  %100 = getelementptr inbounds i32, i32* %97, i64 %99
  %101 = load i32, i32* %100, align 4
  store i32 %101, i32* %5, align 4
  br label %102

102:                                              ; preds = %96, %88
  br label %103

103:                                              ; preds = %102
  %104 = load i32, i32* %2, align 4
  %105 = add nsw i32 %104, 1
  store i32 %105, i32* %2, align 4
  br label %84

106:                                              ; preds = %84
  store i32 0, i32* %2, align 4
  br label %107

107:                                              ; preds = %127, %106
  %108 = load i32, i32* %2, align 4
  %109 = load i32, i32* %1, align 4
  %110 = icmp slt i32 %108, %109
  br i1 %110, label %111, label %130

111:                                              ; preds = %107
  %112 = load i32, i32* %5, align 4
  %113 = load i32*, i32** %7, align 8
  %114 = load i32, i32* %2, align 4
  %115 = sext i32 %114 to i64
  %116 = getelementptr inbounds i32, i32* %113, i64 %115
  %117 = load i32, i32* %116, align 4
  %118 = icmp eq i32 %112, %117
  br i1 %118, label %119, label %126

119:                                              ; preds = %111
  %120 = load [30 x i8]*, [30 x i8]** %6, align 8
  %121 = load i32, i32* %2, align 4
  %122 = sext i32 %121 to i64
  %123 = getelementptr inbounds [30 x i8], [30 x i8]* %120, i64 %122
  %124 = getelementptr inbounds [30 x i8], [30 x i8]* %123, i64 0, i64 0
  %125 = call i32 (i8*, ...) @printf(i8* getelementptr inbounds ([3 x i8], [3 x i8]* @.str, i64 0, i64 0), i8* %124)
  br label %130

126:                                              ; preds = %111
  br label %127

127:                                              ; preds = %126
  %128 = load i32, i32* %2, align 4
  %129 = add nsw i32 %128, 1
  store i32 %129, i32* %2, align 4
  br label %107

130:                                              ; preds = %119, %107
  ret void
}

; Function Attrs: nounwind
declare dso_local noalias i8* @malloc(i64) #1

declare dso_local i32 @__isoc99_scanf(i8*, ...) #2

; Function Attrs: nounwind readonly
declare dso_local i64 @strlen(i8*) #3

declare dso_local i32 @printf(i8*, ...) #2


!llvm.module.flags = !{!0}
!llvm.ident = !{!1}

!0 = !{i32 1, !"wchar_size", i32 4}
!1 = !{!"clang version 10.0.0-4ubuntu1 "}
